target datalayout = "e-m:e-p270:32:32-p271:32:32-p272:64:64-i64:64-i128:128-f80:128-n8:16:32:64-S128"
target triple = "x86_64-pc-linux-gnu"

%struct.LogicalRepCtxStruct = type { i32, i32, i64, [0 x %struct.LogicalRepWorker] }
%struct.LogicalRepWorker = type { i32, i64, i8, i16, ptr, i32, i32, i32, i32, i8, i64, i8, ptr, i32, i8, i64, i64, i64, i64, i64 }
%union.LWLockPadded = type { %struct.LWLock, [112 x i8] }
%struct.LWLock = type { i16, %struct.pg_atomic_uint32, %struct.proclist_head }
%struct.pg_atomic_uint32 = type { i32 }
%struct.proclist_head = type { i32, i32 }
%struct.ParallelApplyWorkerInfo = type { ptr, ptr, ptr, i8, i8, ptr }
%struct.ParallelApplyWorkerShared = type { i8, i32, i32, i16, i32, %struct.pg_atomic_uint32, i64, i32, %struct.FileSet }
%struct.FileSet = type { i32, i32, i32, [8 x i32] }

@LogicalRepCtx = internal global ptr null, align 8
@MainLWLockArray = external global ptr, align 8
@.str.1 = private unnamed_addr constant [11 x i8] c"launcher.c\00", align 1
@__func__.logicalrep_pa_worker_stop = private unnamed_addr constant [26 x i8] c"logicalrep_pa_worker_stop\00", align 1

; Function Attrs: inlinehint nounwind uwtable
define internal i32 @tas(ptr noundef %0) #6 {
  %2 = alloca ptr, align 8
  %3 = alloca i8, align 1
  store ptr %0, ptr %2, align 8
  call void @llvm.lifetime.start.p0(i64 1, ptr %3) #9
  store i8 1, ptr %3, align 1
  %4 = load i8, ptr %3, align 1
  %5 = load ptr, ptr %2, align 8
  %6 = call i8 asm sideeffect "\09lock\09\09\09\0A\09xchgb\09$0,$1\09\0A", "=q,=*m,0,*m,~{memory},~{cc},~{dirflag},~{fpsr},~{flags}"(ptr elementtype(i8) %5, i8 %4, ptr elementtype(i8) %5) #9, !srcloc !15
  store i8 %6, ptr %3, align 1
  %7 = load i8, ptr %3, align 1
  %8 = zext i8 %7 to i32
  call void @llvm.lifetime.end.p0(i64 1, ptr %3) #9
  ret i32 %8
}

; Function Attrs: nounwind uwtable
define dso_local void @logicalrep_pa_worker_stop(ptr noundef %0) #0 {
  %2 = alloca ptr, align 8
  %3 = alloca i32, align 4
  %4 = alloca i16, align 2
  %5 = alloca ptr, align 8
  store ptr %0, ptr %2, align 8
  call void @llvm.lifetime.start.p0(i64 4, ptr %3) #9
  call void @llvm.lifetime.start.p0(i64 2, ptr %4) #9
  call void @llvm.lifetime.start.p0(i64 8, ptr %5) #9
  %6 = load ptr, ptr %2, align 8
  %7 = getelementptr inbounds nuw %struct.ParallelApplyWorkerInfo, ptr %6, i32 0, i32 5
  %8 = load ptr, ptr %7, align 8
  %9 = getelementptr inbounds nuw %struct.ParallelApplyWorkerShared, ptr %8, i32 0, i32 0
  %10 = call i32 @tas(ptr noundef %9)
  %11 = icmp ne i32 %10, 0
  br i1 %11, label %12, label %18

12:                                               ; preds = %1
  %13 = load ptr, ptr %2, align 8
  %14 = getelementptr inbounds nuw %struct.ParallelApplyWorkerInfo, ptr %13, i32 0, i32 5
  %15 = load ptr, ptr %14, align 8
  %16 = getelementptr inbounds nuw %struct.ParallelApplyWorkerShared, ptr %15, i32 0, i32 0
  %17 = call i32 @s_lock(ptr noundef %16, ptr noundef @.str.1, i32 noundef 636, ptr noundef @__func__.logicalrep_pa_worker_stop)
  br label %19

18:                                               ; preds = %1
  br label %19

19:                                               ; preds = %18, %12
  %20 = load ptr, ptr %2, align 8
  %21 = getelementptr inbounds nuw %struct.ParallelApplyWorkerInfo, ptr %20, i32 0, i32 5
  %22 = load ptr, ptr %21, align 8
  %23 = getelementptr inbounds nuw %struct.ParallelApplyWorkerShared, ptr %22, i32 0, i32 3
  %24 = load i16, ptr %23, align 4
  store i16 %24, ptr %4, align 2
  %25 = load ptr, ptr %2, align 8
  %26 = getelementptr inbounds nuw %struct.ParallelApplyWorkerInfo, ptr %25, i32 0, i32 5
  %27 = load ptr, ptr %26, align 8
  %28 = getelementptr inbounds nuw %struct.ParallelApplyWorkerShared, ptr %27, i32 0, i32 4
  %29 = load i32, ptr %28, align 8
  store i32 %29, ptr %3, align 4
  br label %30

30:                                               ; preds = %19
  call void asm sideeffect "", "~{memory},~{dirflag},~{fpsr},~{flags}"() #9, !srcloc !14
  %31 = load ptr, ptr %2, align 8
  %32 = getelementptr inbounds nuw %struct.ParallelApplyWorkerInfo, ptr %31, i32 0, i32 5
  %33 = load ptr, ptr %32, align 8
  %34 = getelementptr inbounds nuw %struct.ParallelApplyWorkerShared, ptr %33, i32 0, i32 0
  store i8 0, ptr %34, align 8
  br label %35

35:                                               ; preds = %30
  br label %36

36:                                               ; preds = %35
  %37 = load ptr, ptr %2, align 8
  %38 = getelementptr inbounds nuw %struct.ParallelApplyWorkerInfo, ptr %37, i32 0, i32 1
  %39 = load ptr, ptr %38, align 8
  %40 = icmp ne ptr %39, null
  br i1 %40, label %41, label %47

41:                                               ; preds = %36
  %42 = load ptr, ptr %2, align 8
  %43 = getelementptr inbounds nuw %struct.ParallelApplyWorkerInfo, ptr %42, i32 0, i32 1
  %44 = load ptr, ptr %43, align 8
  call void @shm_mq_detach(ptr noundef %44)
  %45 = load ptr, ptr %2, align 8
  %46 = getelementptr inbounds nuw %struct.ParallelApplyWorkerInfo, ptr %45, i32 0, i32 1
  store ptr null, ptr %46, align 8
  br label %47

47:                                               ; preds = %41, %36
  %48 = load ptr, ptr @MainLWLockArray, align 8
  %49 = getelementptr inbounds %union.LWLockPadded, ptr %48, i64 43
  %50 = call zeroext i1 @LWLockAcquire(ptr noundef %49, i32 noundef 1)
  %51 = load ptr, ptr @LogicalRepCtx, align 8
  %52 = getelementptr inbounds nuw %struct.LogicalRepCtxStruct, ptr %51, i32 0, i32 3
  %53 = load i32, ptr %3, align 4
  %54 = sext i32 %53 to i64
  %55 = getelementptr inbounds [0 x %struct.LogicalRepWorker], ptr %52, i64 0, i64 %54
  store ptr %55, ptr %5, align 8
  %56 = load ptr, ptr %5, align 8
  %57 = getelementptr inbounds nuw %struct.LogicalRepWorker, ptr %56, i32 0, i32 3
  %58 = load i16, ptr %57, align 2
  %59 = zext i16 %58 to i32
  %60 = load i16, ptr %4, align 2
  %61 = zext i16 %60 to i32
  %62 = icmp eq i32 %59, %61
  br i1 %62, label %63, label %70

63:                                               ; preds = %47
  %64 = load ptr, ptr %5, align 8
  %65 = getelementptr inbounds nuw %struct.LogicalRepWorker, ptr %64, i32 0, i32 4
  %66 = load ptr, ptr %65, align 8
  %67 = icmp ne ptr %66, null
  br i1 %67, label %68, label %70

68:                                               ; preds = %63
  %69 = load ptr, ptr %5, align 8
  call void @logicalrep_worker_stop_internal(ptr noundef %69, i32 noundef 2)
  br label %70

70:                                               ; preds = %68, %63, %47
  %71 = load ptr, ptr @MainLWLockArray, align 8
  %72 = getelementptr inbounds %union.LWLockPadded, ptr %71, i64 43
  call void @LWLockRelease(ptr noundef %72)
  call void @llvm.lifetime.end.p0(i64 8, ptr %5) #9
  call void @llvm.lifetime.end.p0(i64 2, ptr %4) #9
  call void @llvm.lifetime.end.p0(i64 4, ptr %3) #9
  ret void
}