; Function Attrs: nounwind uwtable
define dso_local void @logicalrep_pa_worker_stop(ptr noundef captures(none) %0) local_unnamed_addr #2 {
  %2 = getelementptr inbounds nuw i8, ptr %0, i64 32
  %3 = load ptr, ptr %2, align 8
  %4 = tail call i8 asm sideeffect "\09lock\09\09\09\0A\09xchgb\09$0,$1\09\0A", "=q,=*m,0,*m,~{memory},~{cc},~{dirflag},~{fpsr},~{flags}"(ptr elementtype(i8) %3, i8 1, ptr elementtype(i8) %3) #13, !srcloc !14
  %.not = icmp eq i8 %4, 0
  br i1 %.not, label %8, label %5

5:                                                ; preds = %1
  %6 = load ptr, ptr %2, align 8
  %7 = tail call i32 @s_lock(ptr noundef %6, ptr noundef nonnull @.str.1, i32 noundef 636, ptr noundef nonnull @__func__.logicalrep_pa_worker_stop) #13
  br label %8

8:                                                ; preds = %1, %5
  %9 = load ptr, ptr %2, align 8
  %10 = getelementptr inbounds nuw i8, ptr %9, i64 12
  %11 = load i16, ptr %10, align 4
  %12 = getelementptr inbounds nuw i8, ptr %9, i64 16
  %13 = load i32, ptr %12, align 8
  tail call void asm sideeffect "", "~{memory},~{dirflag},~{fpsr},~{flags}"() #13, !srcloc !15
  %14 = load ptr, ptr %2, align 8
  store i8 0, ptr %14, align 8
  %15 = getelementptr inbounds nuw i8, ptr %0, i64 8
  %16 = load ptr, ptr %15, align 8
  %.not12 = icmp eq ptr %16, null
  br i1 %.not12, label %18, label %17

17:                                               ; preds = %8
  tail call void @shm_mq_detach(ptr noundef nonnull %16) #13
  store ptr null, ptr %15, align 8
  br label %18

18:                                               ; preds = %17, %8
  %19 = load ptr, ptr @MainLWLockArray, align 8
  %20 = getelementptr inbounds nuw i8, ptr %19, i64 5504
  %21 = tail call zeroext i1 @LWLockAcquire(ptr noundef nonnull %20, i32 noundef 1) #13
  %22 = load ptr, ptr @LogicalRepCtx, align 8
  %23 = getelementptr inbounds nuw i8, ptr %22, i64 16
  %24 = sext i32 %13 to i64
  %25 = getelementptr inbounds [0 x %struct.LogicalRepWorker], ptr %23, i64 0, i64 %24
  %26 = getelementptr inbounds nuw i8, ptr %25, i64 18
  %27 = load i16, ptr %26, align 2
  %28 = icmp eq i16 %27, %11
  br i1 %28, label %29, label %33

29:                                               ; preds = %18
  %30 = getelementptr inbounds nuw i8, ptr %25, i64 24
  %31 = load ptr, ptr %30, align 8
  %.not13 = icmp eq ptr %31, null
  br i1 %.not13, label %33, label %32

32:                                               ; preds = %29
  tail call fastcc void @logicalrep_worker_stop_internal(ptr noundef nonnull %25, i32 noundef 2)
  br label %33

33:                                               ; preds = %32, %29, %18
  %34 = load ptr, ptr @MainLWLockArray, align 8
  %35 = getelementptr inbounds nuw i8, ptr %34, i64 5504
  tail call void @LWLockRelease(ptr noundef nonnull %35) #13
  ret void
}